; Function Attrs: mustprogress uwtable
define void @_ZN3nix11RemoteStore21openConnectionWrapperEv(ptr dead_on_unwind noalias writable sret(%"class.nix::ref.40") align 8 %0, ptr noundef nonnull align 8 dereferenceable(25) %1) local_unnamed_addr #5 align 2 personality ptr @__gxx_personality_v0 {
  %3 = alloca %"class.std::__cxx11::basic_string", align 8
  %4 = alloca %"class.std::allocator", align 1
  %5 = alloca %"class.std::__cxx11::basic_string", align 8
  %6 = getelementptr inbounds i8, ptr %1, i64 24
  %7 = load atomic i8, ptr %6 seq_cst, align 8
  %8 = and i8 %7, 1
  %.not = icmp eq i8 %8, 0
  br i1 %.not, label %28, label %9

9:                                                ; preds = %2
  %10 = tail call ptr @__cxa_allocate_exception(i64 376) #29
  call void @_ZNSaIcEC1Ev(ptr noundef nonnull align 1 dereferenceable(1) %4) #29
  invoke void @_ZNSt7__cxx1112basic_stringIcSt11char_traitsIcESaIcEEC2IS3_EEPKcRKS3_(ptr noundef nonnull align 8 dereferenceable(32) %3, ptr noundef nonnull @.str.7, ptr noundef nonnull align 1 dereferenceable(1) %4)
          to label %11 unwind label %.thread

11:                                               ; preds = %9
  %12 = load ptr, ptr %1, align 8
  %13 = getelementptr i8, ptr %12, i64 -24
  %14 = load i64, ptr %13, align 8
  %15 = getelementptr inbounds i8, ptr %1, i64 %14
  %16 = load ptr, ptr %15, align 8
  %17 = getelementptr inbounds i8, ptr %16, i64 24
  %18 = load ptr, ptr %17, align 8
  invoke void %18(ptr dead_on_unwind nonnull writable sret(%"class.std::__cxx11::basic_string") align 8 %5, ptr noundef nonnull align 8 dereferenceable(264) %15)
          to label %19 unwind label %22

19:                                               ; preds = %11
  invoke void @_ZN3nix5ErrorCI2NS_9BaseErrorEIJNSt7__cxx1112basic_stringIcSt11char_traitsIcESaIcEEEEEERKS6_DpRKT_(ptr noundef nonnull align 8 dereferenceable(376) %10, ptr noundef nonnull align 8 dereferenceable(32) %3, ptr noundef nonnull align 8 dereferenceable(32) %5)
          to label %20 unwind label %24

20:                                               ; preds = %19
  invoke void @__cxa_throw(ptr nonnull %10, ptr nonnull @_ZTIN3nix5ErrorE, ptr nonnull @_ZN3nix5ErrorD2Ev) #30
          to label %43 unwind label %24

.thread:                                          ; preds = %9
  %21 = landingpad { ptr, i32 }
          cleanup
  call void @_ZNSaIcED1Ev(ptr noundef nonnull align 1 dereferenceable(1) %4) #29
  br label %27

22:                                               ; preds = %11
  %23 = landingpad { ptr, i32 }
          cleanup
  br label %26

24:                                               ; preds = %20, %19
  %.0 = phi i1 [ false, %20 ], [ true, %19 ]
  %25 = landingpad { ptr, i32 }
          cleanup
  call void @_ZNSt7__cxx1112basic_stringIcSt11char_traitsIcESaIcEED2Ev(ptr noundef nonnull align 8 dereferenceable(32) %5) #29
  br label %26

26:                                               ; preds = %22, %24
  %.pn = phi { ptr, i32 } [ %25, %24 ], [ %23, %22 ]
  %.1 = phi i1 [ %.0, %24 ], [ true, %22 ]
  call void @_ZNSt7__cxx1112basic_stringIcSt11char_traitsIcESaIcEED2Ev(ptr noundef nonnull align 8 dereferenceable(32) %3) #29
  call void @_ZNSaIcED1Ev(ptr noundef nonnull align 1 dereferenceable(1) %4) #29
  br i1 %.1, label %27, label %39

27:                                               ; preds = %.thread, %26
  %.pn.pn15 = phi { ptr, i32 } [ %21, %.thread ], [ %.pn, %26 ]
  call void @__cxa_free_exception(ptr %10) #29
  br label %39

28:                                               ; preds = %2
  %29 = load ptr, ptr %1, align 8
  %30 = getelementptr inbounds i8, ptr %29, i64 288
  %31 = load ptr, ptr %30, align 8
  invoke void %31(ptr dead_on_unwind writable sret(%"class.nix::ref.40") align 8 %0, ptr noundef nonnull align 8 dereferenceable(25) %1)
          to label %32 unwind label %33

32:                                               ; preds = %28
  ret void

33:                                               ; preds = %28
  %34 = landingpad { ptr, i32 }
          catch ptr null
  %35 = extractvalue { ptr, i32 } %34, 0
  %36 = tail call ptr @__cxa_begin_catch(ptr %35) #29
  store atomic i8 1, ptr %6 seq_cst, align 8
  invoke void @__cxa_rethrow() #30
          to label %43 unwind label %37

37:                                               ; preds = %33
  %38 = landingpad { ptr, i32 }
          cleanup
  invoke void @__cxa_end_catch()
          to label %39 unwind label %40

39:                                               ; preds = %37, %26, %27
  %.pn.pn.pn = phi { ptr, i32 } [ %.pn.pn15, %27 ], [ %.pn, %26 ], [ %38, %37 ]
  resume { ptr, i32 } %.pn.pn.pn

40:                                               ; preds = %37
  %41 = landingpad { ptr, i32 }
          catch ptr null
  %42 = extractvalue { ptr, i32 } %41, 0
  tail call void @__clang_call_terminate(ptr %42) #33
  unreachable

43:                                               ; preds = %33, %20
  unreachable
}